target datalayout = "e-m:e-p270:32:32-p271:32:32-p272:64:64-i64:64-i128:128-f80:128-n8:16:32:64-S128"
target triple = "x86_64-unknown-linux-gnu"

%"class.std::set.0" = type { %"class.std::_Rb_tree.1" }
%"class.std::_Rb_tree.1" = type { %"struct.std::_Rb_tree<QuantLib::Observer *, QuantLib::Observer *, std::_Identity<QuantLib::Observer *>, std::less<QuantLib::Observer *>>::_Rb_tree_impl" }
%"struct.std::_Rb_tree<QuantLib::Observer *, QuantLib::Observer *, std::_Identity<QuantLib::Observer *>, std::less<QuantLib::Observer *>>::_Rb_tree_impl" = type { [8 x i8], %"struct.std::_Rb_tree_header" }
%"struct.std::_Rb_tree_header" = type { %"struct.std::_Rb_tree_node_base", i64 }
%"struct.std::_Rb_tree_node_base" = type { i32, ptr, ptr, ptr }
%"class.QuantLib::Date" = type { i64 }
%"class.boost::detail::shared_count" = type { ptr }
%"class.std::set" = type { %"class.std::_Rb_tree" }
%"class.std::_Rb_tree" = type { %"struct.std::_Rb_tree<boost::shared_ptr<QuantLib::Observable>, boost::shared_ptr<QuantLib::Observable>, std::_Identity<boost::shared_ptr<QuantLib::Observable>>, std::less<boost::shared_ptr<QuantLib::Observable>>>::_Rb_tree_impl" }
%"struct.std::_Rb_tree<boost::shared_ptr<QuantLib::Observable>, boost::shared_ptr<QuantLib::Observable>, std::_Identity<boost::shared_ptr<QuantLib::Observable>>, std::less<boost::shared_ptr<QuantLib::Observable>>>::_Rb_tree_impl" = type { [8 x i8], %"struct.std::_Rb_tree_header" }
%"class.QuantLib::Observable" = type { ptr, %"class.std::set.0" }
%"class.QuantLib::DayCounter" = type { %"class.boost::shared_ptr.16" }
%"class.boost::shared_ptr.16" = type { ptr, %"class.boost::detail::shared_count" }
%"class.QuantLib::Handle.53" = type { %"class.boost::shared_ptr.54" }
%"class.boost::shared_ptr.54" = type { ptr, %"class.boost::detail::shared_count" }
%"class.QuantLib::LinearTsrPricer" = type { %"class.QuantLib::CmsCouponPricer.base", %"class.QuantLib::MeanRevertingPricer", double, double, %"class.QuantLib::Handle", %"class.QuantLib::Handle.50", %"class.QuantLib::Handle.50", %"class.QuantLib::Handle.50", ptr, %"class.QuantLib::Date", %"class.QuantLib::Date", %"class.QuantLib::Date", double, double, %"class.QuantLib::Period", double, double, double, double, double, %"class.boost::shared_ptr.55", %"class.boost::shared_ptr.56", %"class.boost::shared_ptr.48", %"struct.QuantLib::LinearTsrPricer::Settings", %"class.QuantLib::DayCounter", %"class.boost::shared_ptr.52", double, double, %"class.QuantLib::Observer", %"class.QuantLib::Observable" }
%"class.QuantLib::CmsCouponPricer.base" = type { %"class.QuantLib::FloatingRateCouponPricer.base", %"class.QuantLib::Handle.53" }
%"class.QuantLib::FloatingRateCouponPricer.base" = type { ptr }
%"class.QuantLib::MeanRevertingPricer" = type { ptr }
%"class.QuantLib::Handle" = type { %"class.boost::shared_ptr.49" }
%"class.boost::shared_ptr.49" = type { ptr, %"class.boost::detail::shared_count" }
%"class.QuantLib::Handle.50" = type { %"class.boost::shared_ptr.51" }
%"class.boost::shared_ptr.51" = type { ptr, %"class.boost::detail::shared_count" }
%"class.QuantLib::Period" = type { i32, i32 }
%"class.boost::shared_ptr.55" = type { ptr, %"class.boost::detail::shared_count" }
%"class.boost::shared_ptr.56" = type { ptr, %"class.boost::detail::shared_count" }
%"class.boost::shared_ptr.48" = type { ptr, %"class.boost::detail::shared_count" }
%"struct.QuantLib::LinearTsrPricer::Settings" = type <{ i32, [4 x i8], double, double, double, double, double, i8, [7 x i8] }>
%"class.boost::shared_ptr.52" = type { ptr, %"class.boost::detail::shared_count" }
%"class.QuantLib::Observer" = type { ptr, %"class.std::set" }
%"class.QuantLib::Coupon.base" = type { %"class.QuantLib::CashFlow.base", %"class.QuantLib::Date", double, %"class.QuantLib::Date", %"class.QuantLib::Date", %"class.QuantLib::Date", %"class.QuantLib::Date", %"class.QuantLib::Date", double }
%"class.QuantLib::CashFlow.base" = type <{ %"class.QuantLib::Event.base", %"class.QuantLib::LazyObject.base" }>
%"class.QuantLib::Event.base" = type { ptr }
%"class.QuantLib::LazyObject.base" = type <{ ptr, i8, i8, i8, i8 }>
%"class.boost::shared_ptr.60" = type { ptr, %"class.boost::detail::shared_count" }
%"class.boost::shared_ptr.61" = type { ptr, %"class.boost::detail::shared_count" }
%"class.QuantLib::CmsCoupon" = type { %"class.QuantLib::FloatingRateCoupon.base", %"class.boost::shared_ptr.55", %"class.QuantLib::Observable", %"class.QuantLib::Observer" }
%"class.QuantLib::FloatingRateCoupon.base" = type { %"class.QuantLib::Coupon.base", %"class.boost::shared_ptr.60", %"class.QuantLib::DayCounter", i32, double, double, i8, %"class.boost::shared_ptr.61", double }

@.str.15 = private unnamed_addr constant [8 x i8] c"px != 0\00", align 1
@.str.16 = private unnamed_addr constant [102 x i8] c"generated/home/dtcxzyw/WorkSpace/SDK/vcpkg/installed/x64-linux/include/boost/smart_ptr/shared_ptr.hpp\00", align 1
@__PRETTY_FUNCTION__._ZNK5boost10shared_ptrIN8QuantLib9SwapIndexEEptEv = private unnamed_addr constant [135 x i8] c"typename boost::detail::sp_member_access<T>::type boost::shared_ptr<QuantLib::SwapIndex>::operator->() const [T = QuantLib::SwapIndex]\00", align 1

; Function Attrs: inlinehint mustprogress nounwind uwtable
define linkonce_odr noundef i64 @_ZNK8QuantLib4Date12serialNumberEv(ptr noundef nonnull align 8 dereferenceable(8) %this) #5 comdat align 2 {
entry:
  %this.addr = alloca ptr, align 8
  store ptr %this, ptr %this.addr, align 8, !tbaa !3
  %this1 = load ptr, ptr %this.addr, align 8
  %serialNumber_ = getelementptr inbounds nuw %"class.QuantLib::Date", ptr %this1, i32 0, i32 0
  %0 = load i64, ptr %serialNumber_, align 8, !tbaa !203
  ret i64 %0
}

; Function Attrs: mustprogress uwtable
define linkonce_odr noundef ptr @_ZNK5boost10shared_ptrIN8QuantLib9SwapIndexEEptEv(ptr noundef nonnull align 8 dereferenceable(16) %this) #2 comdat align 2 {
entry:
  %this.addr = alloca ptr, align 8
  store ptr %this, ptr %this.addr, align 8, !tbaa !3
  %this1 = load ptr, ptr %this.addr, align 8
  %px = getelementptr inbounds nuw %"class.boost::shared_ptr.55", ptr %this1, i32 0, i32 0
  %0 = load ptr, ptr %px, align 8, !tbaa !27
  %cmp = icmp ne ptr %0, null
  %lnot = xor i1 %cmp, true
  %lnot2 = xor i1 %lnot, true
  %conv = zext i1 %lnot2 to i64
  %expval = call i64 @llvm.expect.i64(i64 %conv, i64 1)
  %tobool = icmp ne i64 %expval, 0
  br i1 %tobool, label %cond.true, label %cond.false

cond.true:                                        ; preds = %entry
  br label %cond.end

cond.false:                                       ; preds = %entry
  call void @_ZN5boost16assertion_failedEPKcS1_S1_l(ptr noundef @.str.15, ptr noundef @__PRETTY_FUNCTION__._ZNK5boost10shared_ptrIN8QuantLib9SwapIndexEEptEv, ptr noundef @.str.16, i64 noundef 784)
  br label %cond.end

cond.end:                                         ; preds = %cond.false, %cond.true
  %px3 = getelementptr inbounds nuw %"class.boost::shared_ptr.55", ptr %this1, i32 0, i32 0
  %1 = load ptr, ptr %px3, align 8, !tbaa !27
  ret ptr %1
}

; Function Attrs: mustprogress nounwind uwtable
define linkonce_odr noundef nonnull align 8 dereferenceable(16) ptr @_ZNK8QuantLib9CmsCoupon9swapIndexEv(ptr noundef nonnull align 8 dereferenceable(192) %this) #1 comdat align 2 {
entry:
  %this.addr = alloca ptr, align 8
  store ptr %this, ptr %this.addr, align 8, !tbaa !3
  %this1 = load ptr, ptr %this.addr, align 8
  %swapIndex_ = getelementptr inbounds nuw %"class.QuantLib::CmsCoupon", ptr %this1, i32 0, i32 1
  ret ptr %swapIndex_
}

; Function Attrs: inlinehint mustprogress nounwind uwtable
define linkonce_odr noundef zeroext i1 @_ZN8QuantLibleERKNS_4DateES2_(ptr noundef nonnull align 8 dereferenceable(8) %d1, ptr noundef nonnull align 8 dereferenceable(8) %d2) #5 comdat {
entry:
  %d1.addr = alloca ptr, align 8
  %d2.addr = alloca ptr, align 8
  store ptr %d1, ptr %d1.addr, align 8, !tbaa !3
  store ptr %d2, ptr %d2.addr, align 8, !tbaa !3
  %0 = load ptr, ptr %d1.addr, align 8, !tbaa !3
  %call = call noundef i64 @_ZNK8QuantLib4Date12serialNumberEv(ptr noundef nonnull align 8 dereferenceable(8) %0)
  %1 = load ptr, ptr %d2.addr, align 8, !tbaa !3
  %call1 = call noundef i64 @_ZNK8QuantLib4Date12serialNumberEv(ptr noundef nonnull align 8 dereferenceable(8) %1)
  %cmp = icmp sle i64 %call, %call1
  ret i1 %cmp
}

; Function Attrs: mustprogress uwtable
define noundef double @_ZNK8QuantLib15LinearTsrPricer12swapletPriceEv(ptr noundef nonnull align 8 dereferenceable(360) %this) unnamed_addr #2 align 2 {
entry:
  %retval = alloca double, align 8
  %this.addr = alloca ptr, align 8
  %Rs = alloca double, align 8
  %price = alloca double, align 8
  %atmCapletPrice = alloca double, align 8
  %atmFloorletPrice = alloca double, align 8
  store ptr %this, ptr %this.addr, align 8, !tbaa !3
  %this1 = load ptr, ptr %this.addr, align 8
  %fixingDate_ = getelementptr inbounds nuw %"class.QuantLib::LinearTsrPricer", ptr %this1, i32 0, i32 11
  %today_ = getelementptr inbounds nuw %"class.QuantLib::LinearTsrPricer", ptr %this1, i32 0, i32 9
  %call = call noundef zeroext i1 @_ZN8QuantLibleERKNS_4DateES2_(ptr noundef nonnull align 8 dereferenceable(8) %fixingDate_, ptr noundef nonnull align 8 dereferenceable(8) %today_)
  br i1 %call, label %if.then, label %if.else

if.then:                                          ; preds = %entry
  call void @llvm.lifetime.start.p0(i64 8, ptr %Rs) #15
  %coupon_ = getelementptr inbounds nuw %"class.QuantLib::LinearTsrPricer", ptr %this1, i32 0, i32 8
  %0 = load ptr, ptr %coupon_, align 8, !tbaa !61
  %call2 = call noundef nonnull align 8 dereferenceable(16) ptr @_ZNK8QuantLib9CmsCoupon9swapIndexEv(ptr noundef nonnull align 8 dereferenceable(192) %0)
  %call3 = call noundef ptr @_ZNK5boost10shared_ptrIN8QuantLib9SwapIndexEEptEv(ptr noundef nonnull align 8 dereferenceable(16) %call2)
  %fixingDate_4 = getelementptr inbounds nuw %"class.QuantLib::LinearTsrPricer", ptr %this1, i32 0, i32 11
  %vtable = load ptr, ptr %call3, align 8, !tbaa !12
  %vfn = getelementptr inbounds ptr, ptr %vtable, i64 5
  %1 = load ptr, ptr %vfn, align 8
  %call5 = call noundef double %1(ptr noundef nonnull align 8 dereferenceable(240) %call3, ptr noundef nonnull align 8 dereferenceable(8) %fixingDate_4, i1 noundef zeroext false)
  store double %call5, ptr %Rs, align 8, !tbaa !17
  call void @llvm.lifetime.start.p0(i64 8, ptr %price) #15
  %gearing_ = getelementptr inbounds nuw %"class.QuantLib::LinearTsrPricer", ptr %this1, i32 0, i32 12
  %2 = load double, ptr %gearing_, align 8, !tbaa !62
  %3 = load double, ptr %Rs, align 8, !tbaa !17
  %spread_ = getelementptr inbounds nuw %"class.QuantLib::LinearTsrPricer", ptr %this1, i32 0, i32 13
  %4 = load double, ptr %spread_, align 8, !tbaa !63
  %5 = call double @llvm.fmuladd.f64(double %2, double %3, double %4)
  %coupon_6 = getelementptr inbounds nuw %"class.QuantLib::LinearTsrPricer", ptr %this1, i32 0, i32 8
  %6 = load ptr, ptr %coupon_6, align 8, !tbaa !61
  %call7 = call noundef double @_ZNK8QuantLib6Coupon13accrualPeriodEv(ptr noundef nonnull align 8 dereferenceable(88) %6)
  %discountCurvePaymentDiscount_ = getelementptr inbounds nuw %"class.QuantLib::LinearTsrPricer", ptr %this1, i32 0, i32 18
  %7 = load double, ptr %discountCurvePaymentDiscount_, align 8, !tbaa !66
  %mul = fmul double %call7, %7
  %couponDiscountRatio_ = getelementptr inbounds nuw %"class.QuantLib::LinearTsrPricer", ptr %this1, i32 0, i32 17
  %8 = load double, ptr %couponDiscountRatio_, align 8, !tbaa !67
  %mul8 = fmul double %mul, %8
  %mul9 = fmul double %5, %mul8
  store double %mul9, ptr %price, align 8, !tbaa !17
  %9 = load double, ptr %price, align 8, !tbaa !17
  store double %9, ptr %retval, align 8
  call void @llvm.lifetime.end.p0(i64 8, ptr %price) #15
  call void @llvm.lifetime.end.p0(i64 8, ptr %Rs) #15
  br label %return

if.else:                                          ; preds = %entry
  call void @llvm.lifetime.start.p0(i64 8, ptr %atmCapletPrice) #15
  %swapRateValue_ = getelementptr inbounds nuw %"class.QuantLib::LinearTsrPricer", ptr %this1, i32 0, i32 16
  %10 = load double, ptr %swapRateValue_, align 8, !tbaa !43
  %call10 = call noundef double @_ZNK8QuantLib15LinearTsrPricer14optionletPriceENS_6Option4TypeEd(ptr noundef nonnull align 8 dereferenceable(360) %this1, i32 noundef 1, double noundef %10)
  store double %call10, ptr %atmCapletPrice, align 8, !tbaa !17
  call void @llvm.lifetime.start.p0(i64 8, ptr %atmFloorletPrice) #15
  %swapRateValue_11 = getelementptr inbounds nuw %"class.QuantLib::LinearTsrPricer", ptr %this1, i32 0, i32 16
  %11 = load double, ptr %swapRateValue_11, align 8, !tbaa !43
  %call12 = call noundef double @_ZNK8QuantLib15LinearTsrPricer14optionletPriceENS_6Option4TypeEd(ptr noundef nonnull align 8 dereferenceable(360) %this1, i32 noundef -1, double noundef %11)
  store double %call12, ptr %atmFloorletPrice, align 8, !tbaa !17
  %gearing_13 = getelementptr inbounds nuw %"class.QuantLib::LinearTsrPricer", ptr %this1, i32 0, i32 12
  %12 = load double, ptr %gearing_13, align 8, !tbaa !62
  %coupon_14 = getelementptr inbounds nuw %"class.QuantLib::LinearTsrPricer", ptr %this1, i32 0, i32 8
  %13 = load ptr, ptr %coupon_14, align 8, !tbaa !61
  %call15 = call noundef double @_ZNK8QuantLib6Coupon13accrualPeriodEv(ptr noundef nonnull align 8 dereferenceable(88) %13)
  %discountCurvePaymentDiscount_16 = getelementptr inbounds nuw %"class.QuantLib::LinearTsrPricer", ptr %this1, i32 0, i32 18
  %14 = load double, ptr %discountCurvePaymentDiscount_16, align 8, !tbaa !66
  %mul17 = fmul double %call15, %14
  %swapRateValue_18 = getelementptr inbounds nuw %"class.QuantLib::LinearTsrPricer", ptr %this1, i32 0, i32 16
  %15 = load double, ptr %swapRateValue_18, align 8, !tbaa !43
  %mul19 = fmul double %mul17, %15
  %couponDiscountRatio_20 = getelementptr inbounds nuw %"class.QuantLib::LinearTsrPricer", ptr %this1, i32 0, i32 17
  %16 = load double, ptr %couponDiscountRatio_20, align 8, !tbaa !67
  %17 = load double, ptr %atmCapletPrice, align 8, !tbaa !17
  %18 = call double @llvm.fmuladd.f64(double %mul19, double %16, double %17)
  %19 = load double, ptr %atmFloorletPrice, align 8, !tbaa !17
  %sub = fsub double %18, %19
  %spreadLegValue_ = getelementptr inbounds nuw %"class.QuantLib::LinearTsrPricer", ptr %this1, i32 0, i32 15
  %20 = load double, ptr %spreadLegValue_, align 8, !tbaa !68
  %21 = call double @llvm.fmuladd.f64(double %12, double %sub, double %20)
  store double %21, ptr %retval, align 8
  call void @llvm.lifetime.end.p0(i64 8, ptr %atmFloorletPrice) #15
  call void @llvm.lifetime.end.p0(i64 8, ptr %atmCapletPrice) #15
  br label %return

return:                                           ; preds = %if.else, %if.then
  %22 = load double, ptr %retval, align 8
  ret double %22
}