; Function Attrs: mustprogress uwtable
define noundef double @_ZNK8QuantLib15LinearTsrPricer12swapletPriceEv(ptr noundef nonnull align 8 dereferenceable(360) %this) unnamed_addr #7 align 2 {
entry:
  %fixingDate_ = getelementptr inbounds nuw i8, ptr %this, i64 136
  %today_ = getelementptr inbounds nuw i8, ptr %this, i64 120
  %0 = load i64, ptr %fixingDate_, align 8, !tbaa !139
  %1 = load i64, ptr %today_, align 8, !tbaa !139
  %cmp.i.not = icmp sgt i64 %0, %1
  br i1 %cmp.i.not, label %if.else, label %if.then

if.then:                                          ; preds = %entry
  %coupon_ = getelementptr inbounds nuw i8, ptr %this, i64 112
  %2 = load ptr, ptr %coupon_, align 8, !tbaa !108
  %swapIndex_.i = getelementptr inbounds nuw i8, ptr %2, i64 176
  %3 = load ptr, ptr %swapIndex_.i, align 8, !tbaa !120
  %cmp.not.i = icmp eq ptr %3, null
  br i1 %cmp.not.i, label %cond.false.i, label %_ZNK5boost10shared_ptrIN8QuantLib9SwapIndexEEptEv.exit, !prof !58

cond.false.i:                                     ; preds = %if.then
  tail call void @_ZN5boost16assertion_failedEPKcS1_S1_l(ptr noundef nonnull @.str.15, ptr noundef nonnull @__PRETTY_FUNCTION__._ZNK5boost10shared_ptrIN8QuantLib9SwapIndexEEptEv, ptr noundef nonnull @.str.16, i64 noundef 784)
  %.pre.i = load ptr, ptr %swapIndex_.i, align 8, !tbaa !120
  br label %_ZNK5boost10shared_ptrIN8QuantLib9SwapIndexEEptEv.exit

_ZNK5boost10shared_ptrIN8QuantLib9SwapIndexEEptEv.exit: ; preds = %if.then, %cond.false.i
  %4 = phi ptr [ %3, %if.then ], [ %.pre.i, %cond.false.i ]
  %vtable = load ptr, ptr %4, align 8, !tbaa !35
  %vfn = getelementptr inbounds i8, ptr %vtable, i64 40
  %5 = load ptr, ptr %vfn, align 8
  %call5 = tail call noundef double %5(ptr noundef nonnull align 8 dereferenceable(240) %4, ptr noundef nonnull align 8 dereferenceable(8) %fixingDate_, i1 noundef zeroext false)
  %gearing_ = getelementptr inbounds nuw i8, ptr %this, i64 144
  %6 = load double, ptr %gearing_, align 8, !tbaa !117
  %spread_ = getelementptr inbounds nuw i8, ptr %this, i64 152
  %7 = load double, ptr %spread_, align 8, !tbaa !119
  %8 = tail call double @llvm.fmuladd.f64(double %6, double %call5, double %7)
  %9 = load ptr, ptr %coupon_, align 8, !tbaa !108
  %call7 = tail call noundef double @_ZNK8QuantLib6Coupon13accrualPeriodEv(ptr noundef nonnull align 8 dereferenceable(88) %9)
  %discountCurvePaymentDiscount_ = getelementptr inbounds nuw i8, ptr %this, i64 192
  %10 = load double, ptr %discountCurvePaymentDiscount_, align 8, !tbaa !140
  %mul = fmul double %call7, %10
  %couponDiscountRatio_ = getelementptr inbounds nuw i8, ptr %this, i64 184
  %11 = load double, ptr %couponDiscountRatio_, align 8, !tbaa !141
  %mul8 = fmul double %mul, %11
  %mul9 = fmul double %8, %mul8
  br label %return

if.else:                                          ; preds = %entry
  %swapRateValue_ = getelementptr inbounds nuw i8, ptr %this, i64 176
  %12 = load double, ptr %swapRateValue_, align 8, !tbaa !91
  %call10 = tail call noundef double @_ZNK8QuantLib15LinearTsrPricer14optionletPriceENS_6Option4TypeEd(ptr noundef nonnull align 8 dereferenceable(360) %this, i32 noundef 1, double noundef %12)
  %13 = load double, ptr %swapRateValue_, align 8, !tbaa !91
  %call12 = tail call noundef double @_ZNK8QuantLib15LinearTsrPricer14optionletPriceENS_6Option4TypeEd(ptr noundef nonnull align 8 dereferenceable(360) %this, i32 noundef -1, double noundef %13)
  %gearing_13 = getelementptr inbounds nuw i8, ptr %this, i64 144
  %14 = load double, ptr %gearing_13, align 8, !tbaa !117
  %coupon_14 = getelementptr inbounds nuw i8, ptr %this, i64 112
  %15 = load ptr, ptr %coupon_14, align 8, !tbaa !108
  %call15 = tail call noundef double @_ZNK8QuantLib6Coupon13accrualPeriodEv(ptr noundef nonnull align 8 dereferenceable(88) %15)
  %discountCurvePaymentDiscount_16 = getelementptr inbounds nuw i8, ptr %this, i64 192
  %16 = load double, ptr %discountCurvePaymentDiscount_16, align 8, !tbaa !140
  %mul17 = fmul double %call15, %16
  %17 = load double, ptr %swapRateValue_, align 8, !tbaa !91
  %mul19 = fmul double %mul17, %17
  %couponDiscountRatio_20 = getelementptr inbounds nuw i8, ptr %this, i64 184
  %18 = load double, ptr %couponDiscountRatio_20, align 8, !tbaa !141
  %19 = tail call double @llvm.fmuladd.f64(double %mul19, double %18, double %call10)
  %sub = fsub double %19, %call12
  %spreadLegValue_ = getelementptr inbounds nuw i8, ptr %this, i64 168
  %20 = load double, ptr %spreadLegValue_, align 8, !tbaa !142
  %21 = tail call double @llvm.fmuladd.f64(double %14, double %sub, double %20)
  br label %return

return:                                           ; preds = %if.else, %_ZNK5boost10shared_ptrIN8QuantLib9SwapIndexEEptEv.exit
  %retval.0 = phi double [ %mul9, %_ZNK5boost10shared_ptrIN8QuantLib9SwapIndexEEptEv.exit ], [ %21, %if.else ]
  ret double %retval.0
}